; Function Attrs: nounwind uwtable
define zeroext range(i8 0, 2) i8 @l_Lean_IR_ExplicitBoxing_isBoxedName(ptr noundef %0) local_unnamed_addr #0 {
  %2 = ptrtoint ptr %0 to i64
  %3 = and i64 %2, 1
  %.not.i = icmp eq i64 %3, 0
  br i1 %.not.i, label %7, label %4

4:                                                ; preds = %1
  %5 = lshr i64 %2, 1
  %6 = trunc i64 %5 to i32
  br label %lean_obj_tag.exit

7:                                                ; preds = %1
  %8 = getelementptr i8, ptr %0, i64 4
  %.val.i = load i32, ptr %8, align 4
  %9 = lshr i32 %.val.i, 24
  br label %lean_obj_tag.exit

lean_obj_tag.exit:                                ; preds = %4, %7
  %.0.i = phi i32 [ %6, %4 ], [ %9, %7 ]
  %10 = icmp eq i32 %.0.i, 1
  br i1 %10, label %11, label %lean_string_dec_eq.exit

11:                                               ; preds = %lean_obj_tag.exit
  %12 = getelementptr inbounds nuw i8, ptr %0, i64 16
  %13 = load ptr, ptr %12, align 8, !tbaa !4
  %14 = load ptr, ptr @l_Lean_IR_ExplicitBoxing_mkBoxedName___closed__1, align 8, !tbaa !4
  %15 = icmp eq ptr %13, %14
  br i1 %15, label %lean_string_dec_eq.exit, label %16

16:                                               ; preds = %11
  %17 = getelementptr i8, ptr %13, i64 8
  %.val.i.i = load i64, ptr %17, align 8, !tbaa !8
  %18 = getelementptr i8, ptr %14, i64 8
  %.val7.i.i = load i64, ptr %18, align 8, !tbaa !8
  %19 = icmp eq i64 %.val.i.i, %.val7.i.i
  br i1 %19, label %20, label %lean_string_dec_eq.exit

20:                                               ; preds = %16
  %21 = tail call zeroext i1 @lean_string_eq_cold(ptr noundef nonnull %13, ptr noundef nonnull %14) #6
  %22 = zext i1 %21 to i8
  br label %lean_string_dec_eq.exit

lean_string_dec_eq.exit:                          ; preds = %20, %16, %11, %lean_obj_tag.exit
  %.0 = phi i8 [ 0, %lean_obj_tag.exit ], [ 1, %11 ], [ 0, %16 ], [ %22, %20 ]
  ret i8 %.0
}